; ModuleID = '4/1008.c'
source_filename = "4/1008.c"
target datalayout = "e-m:e-p270:32:32-p271:32:32-p272:64:64-i64:64-f80:128-n8:16:32:64-S128"
target triple = "x86_64-pc-linux-gnu"

@.str = private unnamed_addr constant [6 x i8] c"%d %d\00", align 1
@.str.1 = private unnamed_addr constant [3 x i8] c"%d\00", align 1
@.str.2 = private unnamed_addr constant [4 x i8] c"%d\0A\00", align 1

; Function Attrs: noinline nounwind uwtable
define dso_local i32 @main() #0 {
  %1 = alloca i32, align 4
  %2 = alloca i32, align 4
  %3 = alloca i32, align 4
  %4 = alloca i32, align 4
  %5 = alloca i32, align 4
  %6 = alloca i32, align 4
  %7 = alloca i32, align 4
  %8 = alloca [123 x [123 x i32]], align 16
  store i32 0, i32* %1, align 4
  %9 = call i32 (i8*, ...) @__isoc99_scanf(i8* getelementptr inbounds ([6 x i8], [6 x i8]* @.str, i64 0, i64 0), i32* %2, i32* %3)
  store i32 0, i32* %4, align 4
  br label %10

10:                                               ; preds = %31, %0
  %11 = load i32, i32* %4, align 4
  %12 = load i32, i32* %2, align 4
  %13 = icmp slt i32 %11, %12
  br i1 %13, label %14, label %34

14:                                               ; preds = %10
  store i32 0, i32* %6, align 4
  br label %15

15:                                               ; preds = %27, %14
  %16 = load i32, i32* %6, align 4
  %17 = load i32, i32* %3, align 4
  %18 = icmp slt i32 %16, %17
  br i1 %18, label %19, label %30

19:                                               ; preds = %15
  %20 = load i32, i32* %4, align 4
  %21 = sext i32 %20 to i64
  %22 = getelementptr inbounds [123 x [123 x i32]], [123 x [123 x i32]]* %8, i64 0, i64 %21
  %23 = load i32, i32* %6, align 4
  %24 = sext i32 %23 to i64
  %25 = getelementptr inbounds [123 x i32], [123 x i32]* %22, i64 0, i64 %24
  %26 = call i32 (i8*, ...) @__isoc99_scanf(i8* getelementptr inbounds ([3 x i8], [3 x i8]* @.str.1, i64 0, i64 0), i32* %25)
  br label %27

27:                                               ; preds = %19
  %28 = load i32, i32* %6, align 4
  %29 = add nsw i32 %28, 1
  store i32 %29, i32* %6, align 4
  br label %15

30:                                               ; preds = %15
  br label %31

31:                                               ; preds = %30
  %32 = load i32, i32* %4, align 4
  %33 = add nsw i32 %32, 1
  store i32 %33, i32* %4, align 4
  br label %10

34:                                               ; preds = %10
  store i32 0, i32* %5, align 4
  br label %35

35:                                               ; preds = %73, %34
  %36 = load i32, i32* %5, align 4
  %37 = load i32, i32* %2, align 4
  %38 = load i32, i32* %3, align 4
  %39 = add nsw i32 %37, %38
  %40 = sub nsw i32 %39, 2
  %41 = icmp sle i32 %36, %40
  br i1 %41, label %42, label %76

42:                                               ; preds = %35
  store i32 0, i32* %7, align 4
  br label %43

43:                                               ; preds = %69, %42
  %44 = load i32, i32* %7, align 4
  %45 = load i32, i32* %5, align 4
  %46 = icmp sle i32 %44, %45
  br i1 %46, label %47, label %72

47:                                               ; preds = %43
  %48 = load i32, i32* %7, align 4
  %49 = load i32, i32* %2, align 4
  %50 = icmp slt i32 %48, %49
  br i1 %50, label %51, label %68

51:                                               ; preds = %47
  %52 = load i32, i32* %5, align 4
  %53 = load i32, i32* %7, align 4
  %54 = sub nsw i32 %52, %53
  %55 = load i32, i32* %3, align 4
  %56 = icmp slt i32 %54, %55
  br i1 %56, label %57, label %68

57:                                               ; preds = %51
  %58 = load i32, i32* %7, align 4
  %59 = sext i32 %58 to i64
  %60 = getelementptr inbounds [123 x [123 x i32]], [123 x [123 x i32]]* %8, i64 0, i64 %59
  %61 = load i32, i32* %5, align 4
  %62 = load i32, i32* %7, align 4
  %63 = sub nsw i32 %61, %62
  %64 = sext i32 %63 to i64
  %65 = getelementptr inbounds [123 x i32], [123 x i32]* %60, i64 0, i64 %64
  %66 = load i32, i32* %65, align 4
  %67 = call i32 (i8*, ...) @printf(i8* getelementptr inbounds ([4 x i8], [4 x i8]* @.str.2, i64 0, i64 0), i32 %66)
  br label %68

68:                                               ; preds = %57, %51, %47
  br label %69

69:                                               ; preds = %68
  %70 = load i32, i32* %7, align 4
  %71 = add nsw i32 %70, 1
  store i32 %71, i32* %7, align 4
  br label %43

72:                                               ; preds = %43
  br label %73

73:                                               ; preds = %72
  %74 = load i32, i32* %5, align 4
  %75 = add nsw i32 %74, 1
  store i32 %75, i32* %5, align 4
  br label %35

76:                                               ; preds = %35
  ret i32 0
}

declare dso_local i32 @__isoc99_scanf(i8*, ...) #1

declare dso_local i32 @printf(i8*, ...) #1


!llvm.module.flags = !{!0}
!llvm.ident = !{!1}

!0 = !{i32 1, !"wchar_size", i32 4}
!1 = !{!"clang version 10.0.0-4ubuntu1 "}
