; ModuleID = 'source-C-CXX/3/1008.c'
source_filename = "source-C-CXX/3/1008.c"
target datalayout = "e-m:e-p270:32:32-p271:32:32-p272:64:64-i64:64-f80:128-n8:16:32:64-S128"
target triple = "x86_64-pc-linux-gnu"

@.str = private unnamed_addr constant [6 x i8] c"%d %d\00", align 1
@.str.1 = private unnamed_addr constant [3 x i8] c"%d\00", align 1
@.str.2 = private unnamed_addr constant [4 x i8] c"%d\0A\00", align 1

; Function Attrs: nofree nounwind sspstrong uwtable
define dso_local i32 @main() local_unnamed_addr #0 {
  %1 = alloca i32, align 4
  %2 = alloca i32, align 4
  %3 = alloca [123 x [123 x i32]], align 16
  %4 = bitcast i32* %1 to i8*
  call void @llvm.lifetime.start.p0i8(i64 4, i8* nonnull %4) #3
  %5 = bitcast i32* %2 to i8*
  call void @llvm.lifetime.start.p0i8(i64 4, i8* nonnull %5) #3
  %6 = bitcast [123 x [123 x i32]]* %3 to i8*
  call void @llvm.lifetime.start.p0i8(i64 60516, i8* nonnull %6) #3
  %7 = call i32 (i8*, ...) @__isoc99_scanf(i8* getelementptr inbounds ([6 x i8], [6 x i8]* @.str, i64 0, i64 0), i32* nonnull %1, i32* nonnull %2)
  %8 = load i32, i32* %1, align 4, !tbaa !5
  %9 = icmp sgt i32 %8, 0
  %10 = load i32, i32* %2, align 4, !tbaa !5
  %11 = icmp sgt i32 %10, 0
  %12 = select i1 %9, i1 %11, i1 false
  br i1 %12, label %13, label %18

13:                                               ; preds = %0, %34
  %14 = phi i32 [ %35, %34 ], [ %8, %0 ]
  %15 = phi i32 [ %36, %34 ], [ %10, %0 ]
  %16 = phi i64 [ %37, %34 ], [ 0, %0 ]
  %17 = icmp sgt i32 %15, 0
  br i1 %17, label %24, label %34

18:                                               ; preds = %34, %0
  %19 = phi i32 [ %10, %0 ], [ %36, %34 ]
  %20 = phi i32 [ %8, %0 ], [ %35, %34 ]
  %21 = add i32 %20, -2
  %22 = add i32 %21, %19
  %23 = icmp slt i32 %22, 0
  br i1 %23, label %72, label %40

24:                                               ; preds = %13, %24
  %25 = phi i64 [ %28, %24 ], [ 0, %13 ]
  %26 = getelementptr inbounds [123 x [123 x i32]], [123 x [123 x i32]]* %3, i64 0, i64 %16, i64 %25
  %27 = call i32 (i8*, ...) @__isoc99_scanf(i8* getelementptr inbounds ([3 x i8], [3 x i8]* @.str.1, i64 0, i64 0), i32* nonnull %26)
  %28 = add nuw nsw i64 %25, 1
  %29 = load i32, i32* %2, align 4, !tbaa !5
  %30 = sext i32 %29 to i64
  %31 = icmp slt i64 %28, %30
  br i1 %31, label %24, label %32, !llvm.loop !9

32:                                               ; preds = %24
  %33 = load i32, i32* %1, align 4, !tbaa !5
  br label %34

34:                                               ; preds = %32, %13
  %35 = phi i32 [ %33, %32 ], [ %14, %13 ]
  %36 = phi i32 [ %29, %32 ], [ %15, %13 ]
  %37 = add nuw nsw i64 %16, 1
  %38 = sext i32 %35 to i64
  %39 = icmp slt i64 %37, %38
  br i1 %39, label %13, label %18, !llvm.loop !11

40:                                               ; preds = %18, %63
  %41 = phi i32 [ %65, %63 ], [ %20, %18 ]
  %42 = phi i64 [ %64, %63 ], [ 0, %18 ]
  %43 = phi i64 [ %71, %63 ], [ 1, %18 ]
  br label %44

44:                                               ; preds = %61, %40
  %45 = phi i32 [ %41, %40 ], [ %62, %61 ]
  %46 = phi i64 [ 0, %40 ], [ %59, %61 ]
  %47 = sext i32 %45 to i64
  %48 = icmp slt i64 %46, %47
  br i1 %48, label %49, label %58

49:                                               ; preds = %44
  %50 = sub nsw i64 %42, %46
  %51 = load i32, i32* %2, align 4, !tbaa !5
  %52 = sext i32 %51 to i64
  %53 = icmp slt i64 %50, %52
  br i1 %53, label %54, label %58

54:                                               ; preds = %49
  %55 = getelementptr inbounds [123 x [123 x i32]], [123 x [123 x i32]]* %3, i64 0, i64 %46, i64 %50
  %56 = load i32, i32* %55, align 4, !tbaa !5
  %57 = call i32 (i8*, ...) @printf(i8* nonnull dereferenceable(1) getelementptr inbounds ([4 x i8], [4 x i8]* @.str.2, i64 0, i64 0), i32 %56)
  br label %58

58:                                               ; preds = %44, %49, %54
  %59 = add nuw nsw i64 %46, 1
  %60 = icmp eq i64 %59, %43
  br i1 %60, label %63, label %61, !llvm.loop !13

61:                                               ; preds = %58
  %62 = load i32, i32* %1, align 4, !tbaa !5
  br label %44

63:                                               ; preds = %58
  %64 = add nuw nsw i64 %42, 1
  %65 = load i32, i32* %1, align 4, !tbaa !5
  %66 = load i32, i32* %2, align 4, !tbaa !5
  %67 = add i32 %65, -2
  %68 = add i32 %67, %66
  %69 = sext i32 %68 to i64
  %70 = icmp slt i64 %42, %69
  %71 = add nuw nsw i64 %43, 1
  br i1 %70, label %40, label %72, !llvm.loop !14

72:                                               ; preds = %63, %18
  call void @llvm.lifetime.end.p0i8(i64 60516, i8* nonnull %6) #3
  call void @llvm.lifetime.end.p0i8(i64 4, i8* nonnull %5) #3
  call void @llvm.lifetime.end.p0i8(i64 4, i8* nonnull %4) #3
  ret i32 0
}

; Function Attrs: argmemonly mustprogress nofree nosync nounwind willreturn
declare void @llvm.lifetime.start.p0i8(i64 immarg, i8* nocapture) #1

; Function Attrs: nofree nounwind
declare noundef i32 @__isoc99_scanf(i8* nocapture noundef readonly, ...) local_unnamed_addr #2

; Function Attrs: nofree nounwind
declare noundef i32 @printf(i8* nocapture noundef readonly, ...) local_unnamed_addr #2

; Function Attrs: argmemonly mustprogress nofree nosync nounwind willreturn
declare void @llvm.lifetime.end.p0i8(i64 immarg, i8* nocapture) #1


!llvm.module.flags = !{!0, !1, !2, !3}
!llvm.ident = !{!4}

!0 = !{i32 1, !"wchar_size", i32 4}
!1 = !{i32 7, !"PIC Level", i32 2}
!2 = !{i32 7, !"PIE Level", i32 2}
!3 = !{i32 7, !"uwtable", i32 1}
!4 = !{!"clang version 13.0.0"}
!5 = !{!6, !6, i64 0}
!6 = !{!"int", !7, i64 0}
!7 = !{!"omnipotent char", !8, i64 0}
!8 = !{!"Simple C/C++ TBAA"}
!9 = distinct !{!9, !10}
!10 = !{!"llvm.loop.mustprogress"}
!11 = distinct !{!11, !10, !12}
!12 = !{!"llvm.loop.unswitch.partial.disable"}
!13 = distinct !{!13, !10}
!14 = distinct !{!14, !10}
